target datalayout = "e-m:e-p270:32:32-p271:32:32-p272:64:64-i64:64-i128:128-f80:128-n8:16:32:64-S128"
target triple = "x86_64-pc-linux-gnu"

%"class.cvc5::internal::NodeTemplate" = type { ptr }
%"class.cvc5::internal::NodeTemplate.101" = type { ptr }
%"class.cvc5::internal::Rational" = type { %class.__gmp_expr }
%class.__gmp_expr = type { [1 x %struct.__mpq_struct] }
%struct.__mpq_struct = type { %struct.__mpz_struct, %struct.__mpz_struct }
%struct.__mpz_struct = type { i32, i32, ptr }

; Function Attrs: mustprogress nounwind uwtable
define linkonce_odr hidden noundef ptr @_ZNK10__gmp_exprIA1_12__mpq_structS1_E9get_mpq_tEv(ptr noundef nonnull align 8 dereferenceable(32) %0) #5 comdat align 2 {
  %2 = alloca ptr, align 8
  store ptr %0, ptr %2, align 8, !tbaa !358
  %3 = load ptr, ptr %2, align 8
  %4 = getelementptr inbounds nuw %class.__gmp_expr, ptr %3, i32 0, i32 0
  %5 = getelementptr inbounds [1 x %struct.__mpq_struct], ptr %4, i64 0, i64 0
  ret ptr %5
}

; Function Attrs: inlinehint mustprogress nounwind uwtable
define linkonce_odr hidden void @_ZNK4cvc58internal12NodeTemplateILb1EE21assertTNodeNotExpiredEv(ptr noundef nonnull align 8 dereferenceable(8) %0) #8 comdat align 2 {
  %2 = alloca ptr, align 8
  store ptr %0, ptr %2, align 8, !tbaa !12
  ret void
}

; Function Attrs: mustprogress nounwind uwtable
define linkonce_odr hidden void @_ZN4cvc58internal12NodeTemplateILb0EED2Ev(ptr noundef nonnull align 8 dereferenceable(8) %0) unnamed_addr #5 comdat align 2 {
  %2 = alloca ptr, align 8
  store ptr %0, ptr %2, align 8, !tbaa !41
  ret void
}

; Function Attrs: mustprogress nounwind uwtable
define linkonce_odr hidden void @_ZN4cvc58internal12NodeTemplateILb0EEC2ERKNS1_ILb1EEE(ptr noundef nonnull align 8 dereferenceable(8) %0, ptr noundef nonnull align 8 dereferenceable(8) %1) unnamed_addr #5 comdat align 2 {
  %3 = alloca ptr, align 8
  %4 = alloca ptr, align 8
  store ptr %0, ptr %3, align 8, !tbaa !41
  store ptr %1, ptr %4, align 8, !tbaa !12
  %5 = load ptr, ptr %3, align 8
  %6 = load ptr, ptr %4, align 8, !tbaa !12
  %7 = getelementptr inbounds nuw %"class.cvc5::internal::NodeTemplate", ptr %6, i32 0, i32 0
  %8 = load ptr, ptr %7, align 8, !tbaa !46
  %9 = getelementptr inbounds nuw %"class.cvc5::internal::NodeTemplate.101", ptr %5, i32 0, i32 0
  store ptr %8, ptr %9, align 8, !tbaa !83
  ret void
}

; Function Attrs: mustprogress uwtable
define linkonce_odr hidden noundef i32 @_ZNK4cvc58internal8Rational3sgnEv(ptr noundef nonnull align 8 dereferenceable(32) %0) #4 comdat align 2 {
  %2 = alloca ptr, align 8
  store ptr %0, ptr %2, align 8, !tbaa !173
  %3 = load ptr, ptr %2, align 8
  %4 = getelementptr inbounds nuw %"class.cvc5::internal::Rational", ptr %3, i32 0, i32 0
  %5 = call noundef ptr @_ZNK10__gmp_exprIA1_12__mpq_structS1_E9get_mpq_tEv(ptr noundef nonnull align 8 dereferenceable(32) %4)
  %6 = getelementptr inbounds nuw %struct.__mpq_struct, ptr %5, i32 0, i32 0
  %7 = getelementptr inbounds nuw %struct.__mpz_struct, ptr %6, i32 0, i32 1
  %8 = load i32, ptr %7, align 4, !tbaa !175
  %9 = icmp slt i32 %8, 0
  br i1 %9, label %10, label %11

10:                                               ; preds = %1
  br label %19

11:                                               ; preds = %1
  %12 = getelementptr inbounds nuw %"class.cvc5::internal::Rational", ptr %3, i32 0, i32 0
  %13 = call noundef ptr @_ZNK10__gmp_exprIA1_12__mpq_structS1_E9get_mpq_tEv(ptr noundef nonnull align 8 dereferenceable(32) %12)
  %14 = getelementptr inbounds nuw %struct.__mpq_struct, ptr %13, i32 0, i32 0
  %15 = getelementptr inbounds nuw %struct.__mpz_struct, ptr %14, i32 0, i32 1
  %16 = load i32, ptr %15, align 4, !tbaa !175
  %17 = icmp sgt i32 %16, 0
  %18 = zext i1 %17 to i32
  br label %19

19:                                               ; preds = %11, %10
  %20 = phi i32 [ -1, %10 ], [ %18, %11 ]
  ret i32 %20
}

; Function Attrs: inlinehint mustprogress uwtable
define linkonce_odr hidden noundef nonnull align 8 dereferenceable(32) ptr @_ZNK4cvc58internal12NodeTemplateILb1EE8getConstINS0_8RationalEEERKT_v(ptr noundef nonnull align 8 dereferenceable(8) %0) #6 comdat align 2 {
  %2 = alloca ptr, align 8
  store ptr %0, ptr %2, align 8, !tbaa !12
  %3 = load ptr, ptr %2, align 8
  call void @_ZNK4cvc58internal12NodeTemplateILb1EE21assertTNodeNotExpiredEv(ptr noundef nonnull align 8 dereferenceable(8) %3)
  %4 = getelementptr inbounds nuw %"class.cvc5::internal::NodeTemplate", ptr %3, i32 0, i32 0
  %5 = load ptr, ptr %4, align 8, !tbaa !46
  %6 = call noundef nonnull align 8 dereferenceable(32) ptr @_ZNK4cvc58internal4expr9NodeValue8getConstINS0_8RationalEEERKT_v(ptr noundef nonnull align 8 dereferenceable(24) %5)
  ret ptr %6
}

; Function Attrs: inlinehint mustprogress uwtable
define linkonce_odr hidden noundef nonnull align 1 dereferenceable(1) ptr @_ZNK4cvc58internal12NodeTemplateILb1EE8getConstIbEERKT_v(ptr noundef nonnull align 8 dereferenceable(8) %0) #6 comdat align 2 {
  %2 = alloca ptr, align 8
  store ptr %0, ptr %2, align 8, !tbaa !12
  %3 = load ptr, ptr %2, align 8
  call void @_ZNK4cvc58internal12NodeTemplateILb1EE21assertTNodeNotExpiredEv(ptr noundef nonnull align 8 dereferenceable(8) %3)
  %4 = getelementptr inbounds nuw %"class.cvc5::internal::NodeTemplate", ptr %3, i32 0, i32 0
  %5 = load ptr, ptr %4, align 8, !tbaa !46
  %6 = call noundef nonnull align 1 dereferenceable(1) ptr @_ZNK4cvc58internal4expr9NodeValue8getConstIbEERKT_v(ptr noundef nonnull align 8 dereferenceable(24) %5)
  ret ptr %6
}

; Function Attrs: mustprogress uwtable
define hidden noundef zeroext i1 @_ZN4cvc58internal6theory20SubstitutionMinimize13isSingularArgENS0_12NodeTemplateILb1EEENS0_4kind6Kind_tEj(ptr noundef nonnull align 8 dereferenceable(16) %0, ptr noundef %1, i32 noundef %2, i32 noundef %3) #4 align 2 personality ptr @__gxx_personality_v0 {
  %5 = alloca i1, align 1
  %6 = alloca ptr, align 8
  %7 = alloca ptr, align 8
  %8 = alloca i32, align 4
  %9 = alloca i32, align 4
  %10 = alloca %"class.cvc5::internal::NodeTemplate.101", align 8
  %11 = alloca ptr, align 8
  %12 = alloca i32, align 4
  %13 = alloca %"class.cvc5::internal::NodeTemplate.101", align 8
  %14 = alloca %"class.cvc5::internal::NodeTemplate.101", align 8
  store ptr %0, ptr %6, align 8, !tbaa !3
  store ptr %1, ptr %7, align 8, !tbaa !12
  store i32 %2, ptr %8, align 4, !tbaa !37
  store i32 %3, ptr %9, align 4, !tbaa !35
  %15 = call noundef zeroext i1 @_ZNK4cvc58internal12NodeTemplateILb1EE7isConstEv(ptr noundef nonnull align 8 dereferenceable(8) %1)
  br i1 %15, label %17, label %16

16:                                               ; preds = %4
  store i1 false, ptr %5, align 1
  br label %157

17:                                               ; preds = %4
  %18 = load i32, ptr %8, align 4, !tbaa !37
  %19 = icmp eq i32 %18, 22
  br i1 %19, label %20, label %25

20:                                               ; preds = %17
  %21 = call noundef nonnull align 1 dereferenceable(1) ptr @_ZNK4cvc58internal12NodeTemplateILb1EE8getConstIbEERKT_v(ptr noundef nonnull align 8 dereferenceable(8) %1)
  %22 = load i8, ptr %21, align 1, !tbaa !19, !range !33, !noundef !34
  %23 = trunc i8 %22 to i1
  %24 = xor i1 %23, true
  store i1 %24, ptr %5, align 1
  br label %157

25:                                               ; preds = %17
  %26 = load i32, ptr %8, align 4, !tbaa !37
  %27 = icmp eq i32 %26, 24
  br i1 %27, label %28, label %32

28:                                               ; preds = %25
  %29 = call noundef nonnull align 1 dereferenceable(1) ptr @_ZNK4cvc58internal12NodeTemplateILb1EE8getConstIbEERKT_v(ptr noundef nonnull align 8 dereferenceable(8) %1)
  %30 = load i8, ptr %29, align 1, !tbaa !19, !range !33, !noundef !34
  %31 = trunc i8 %30 to i1
  store i1 %31, ptr %5, align 1
  br label %157

32:                                               ; preds = %25
  %33 = load i32, ptr %8, align 4, !tbaa !37
  %34 = icmp eq i32 %33, 23
  br i1 %34, label %35, label %42

35:                                               ; preds = %32
  %36 = load i32, ptr %9, align 4, !tbaa !35
  %37 = call noundef nonnull align 1 dereferenceable(1) ptr @_ZNK4cvc58internal12NodeTemplateILb1EE8getConstIbEERKT_v(ptr noundef nonnull align 8 dereferenceable(8) %1)
  %38 = load i8, ptr %37, align 1, !tbaa !19, !range !33, !noundef !34
  %39 = trunc i8 %38 to i1
  %40 = select i1 %39, i32 1, i32 0
  %41 = icmp eq i32 %36, %40
  store i1 %41, ptr %5, align 1
  br label %157

42:                                               ; preds = %32
  br label %43

43:                                               ; preds = %42
  br label %44

44:                                               ; preds = %43
  %45 = load i32, ptr %8, align 4, !tbaa !37
  %46 = icmp eq i32 %45, 40
  br i1 %46, label %65, label %47

47:                                               ; preds = %44
  %48 = load i32, ptr %9, align 4, !tbaa !35
  %49 = icmp eq i32 %48, 0
  br i1 %49, label %50, label %59

50:                                               ; preds = %47
  %51 = load i32, ptr %8, align 4, !tbaa !37
  %52 = icmp eq i32 %51, 45
  br i1 %52, label %65, label %53

53:                                               ; preds = %50
  %54 = load i32, ptr %8, align 4, !tbaa !37
  %55 = icmp eq i32 %54, 47
  br i1 %55, label %65, label %56

56:                                               ; preds = %53
  %57 = load i32, ptr %8, align 4, !tbaa !37
  %58 = icmp eq i32 %57, 49
  br i1 %58, label %65, label %59

59:                                               ; preds = %56, %47
  %60 = load i32, ptr %9, align 4, !tbaa !35
  %61 = icmp eq i32 %60, 2
  br i1 %61, label %62, label %71

62:                                               ; preds = %59
  %63 = load i32, ptr %8, align 4, !tbaa !37
  %64 = icmp eq i32 %63, 318
  br i1 %64, label %65, label %71

65:                                               ; preds = %62, %56, %53, %50, %44
  %66 = call noundef nonnull align 8 dereferenceable(32) ptr @_ZNK4cvc58internal12NodeTemplateILb1EE8getConstINS0_8RationalEEERKT_v(ptr noundef nonnull align 8 dereferenceable(8) %1)
  %67 = call noundef i32 @_ZNK4cvc58internal8Rational3sgnEv(ptr noundef nonnull align 8 dereferenceable(32) %66)
  %68 = icmp eq i32 %67, 0
  br i1 %68, label %69, label %70

69:                                               ; preds = %65
  store i1 true, ptr %5, align 1
  br label %157

70:                                               ; preds = %65
  br label %71

71:                                               ; preds = %70, %62, %59
  %72 = load i32, ptr %8, align 4, !tbaa !37
  %73 = icmp eq i32 %72, 93
  br i1 %73, label %95, label %74

74:                                               ; preds = %71
  %75 = load i32, ptr %8, align 4, !tbaa !37
  %76 = icmp eq i32 %75, 101
  br i1 %76, label %95, label %77

77:                                               ; preds = %74
  %78 = load i32, ptr %8, align 4, !tbaa !37
  %79 = icmp eq i32 %78, 105
  br i1 %79, label %95, label %80

80:                                               ; preds = %77
  %81 = load i32, ptr %8, align 4, !tbaa !37
  %82 = icmp eq i32 %81, 106
  br i1 %82, label %95, label %83

83:                                               ; preds = %80
  %84 = load i32, ptr %9, align 4, !tbaa !35
  %85 = icmp eq i32 %84, 0
  br i1 %85, label %86, label %104

86:                                               ; preds = %83
  %87 = load i32, ptr %8, align 4, !tbaa !37
  %88 = icmp eq i32 %87, 112
  br i1 %88, label %95, label %89

89:                                               ; preds = %86
  %90 = load i32, ptr %8, align 4, !tbaa !37
  %91 = icmp eq i32 %90, 111
  br i1 %91, label %95, label %92

92:                                               ; preds = %89
  %93 = load i32, ptr %8, align 4, !tbaa !37
  %94 = icmp eq i32 %93, 110
  br i1 %94, label %95, label %104

95:                                               ; preds = %92, %89, %86, %80, %77, %74, %71
  call void @_ZN4cvc58internal12NodeTemplateILb0EEC2ERKNS1_ILb1EEE(ptr noundef nonnull align 8 dereferenceable(8) %10, ptr noundef nonnull align 8 dereferenceable(8) %1)
  %96 = invoke noundef zeroext i1 @_ZN4cvc58internal6theory2bv5utils6isZeroENS0_12NodeTemplateILb0EEE(ptr noundef %10)
          to label %97 unwind label %99

97:                                               ; preds = %95
  call void @_ZN4cvc58internal12NodeTemplateILb0EED2Ev(ptr noundef nonnull align 8 dereferenceable(8) %10) #3
  br i1 %96, label %98, label %103

98:                                               ; preds = %97
  store i1 true, ptr %5, align 1
  br label %157

99:                                               ; preds = %95
  %100 = landingpad { ptr, i32 }
          cleanup
  %101 = extractvalue { ptr, i32 } %100, 0
  store ptr %101, ptr %11, align 8
  %102 = extractvalue { ptr, i32 } %100, 1
  store i32 %102, ptr %12, align 4
  call void @_ZN4cvc58internal12NodeTemplateILb0EED2Ev(ptr noundef nonnull align 8 dereferenceable(8) %10) #3
  br label %159

103:                                              ; preds = %97
  br label %104

104:                                              ; preds = %103, %92, %83
  %105 = load i32, ptr %8, align 4, !tbaa !37
  %106 = icmp eq i32 %105, 95
  br i1 %106, label %107, label %116

107:                                              ; preds = %104
  call void @_ZN4cvc58internal12NodeTemplateILb0EEC2ERKNS1_ILb1EEE(ptr noundef nonnull align 8 dereferenceable(8) %13, ptr noundef nonnull align 8 dereferenceable(8) %1)
  %108 = invoke noundef zeroext i1 @_ZN4cvc58internal6theory2bv5utils6isOnesENS0_12NodeTemplateILb0EEE(ptr noundef %13)
          to label %109 unwind label %111

109:                                              ; preds = %107
  call void @_ZN4cvc58internal12NodeTemplateILb0EED2Ev(ptr noundef nonnull align 8 dereferenceable(8) %13) #3
  br i1 %108, label %110, label %115

110:                                              ; preds = %109
  store i1 true, ptr %5, align 1
  br label %157

111:                                              ; preds = %107
  %112 = landingpad { ptr, i32 }
          cleanup
  %113 = extractvalue { ptr, i32 } %112, 0
  store ptr %113, ptr %11, align 8
  %114 = extractvalue { ptr, i32 } %112, 1
  store i32 %114, ptr %12, align 4
  call void @_ZN4cvc58internal12NodeTemplateILb0EED2Ev(ptr noundef nonnull align 8 dereferenceable(8) %13) #3
  br label %159

115:                                              ; preds = %109
  br label %116

116:                                              ; preds = %115, %104
  %117 = load i32, ptr %9, align 4, !tbaa !35
  %118 = icmp eq i32 %117, 1
  br i1 %118, label %119, label %122

119:                                              ; preds = %116
  %120 = load i32, ptr %8, align 4, !tbaa !37
  %121 = icmp eq i32 %120, 321
  br i1 %121, label %128, label %122

122:                                              ; preds = %119, %116
  %123 = load i32, ptr %9, align 4, !tbaa !35
  %124 = icmp eq i32 %123, 0
  br i1 %124, label %125, label %138

125:                                              ; preds = %122
  %126 = load i32, ptr %8, align 4, !tbaa !37
  %127 = icmp eq i32 %126, 318
  br i1 %127, label %128, label %138

128:                                              ; preds = %125, %119
  call void @_ZN4cvc58internal12NodeTemplateILb0EEC2ERKNS1_ILb1EEE(ptr noundef nonnull align 8 dereferenceable(8) %14, ptr noundef nonnull align 8 dereferenceable(8) %1)
  %129 = invoke noundef i64 @_ZN4cvc58internal6theory7strings4Word9getLengthENS0_12NodeTemplateILb0EEE(ptr noundef %14)
          to label %130 unwind label %133

130:                                              ; preds = %128
  %131 = icmp eq i64 %129, 0
  call void @_ZN4cvc58internal12NodeTemplateILb0EED2Ev(ptr noundef nonnull align 8 dereferenceable(8) %14) #3
  br i1 %131, label %132, label %137

132:                                              ; preds = %130
  store i1 true, ptr %5, align 1
  br label %157

133:                                              ; preds = %128
  %134 = landingpad { ptr, i32 }
          cleanup
  %135 = extractvalue { ptr, i32 } %134, 0
  store ptr %135, ptr %11, align 8
  %136 = extractvalue { ptr, i32 } %134, 1
  store i32 %136, ptr %12, align 4
  call void @_ZN4cvc58internal12NodeTemplateILb0EED2Ev(ptr noundef nonnull align 8 dereferenceable(8) %14) #3
  br label %159

137:                                              ; preds = %130
  br label %138

138:                                              ; preds = %137, %125, %122
  %139 = load i32, ptr %9, align 4, !tbaa !35
  %140 = icmp ne i32 %139, 0
  br i1 %140, label %141, label %144

141:                                              ; preds = %138
  %142 = load i32, ptr %8, align 4, !tbaa !37
  %143 = icmp eq i32 %142, 318
  br i1 %143, label %150, label %144

144:                                              ; preds = %141, %138
  %145 = load i32, ptr %9, align 4, !tbaa !35
  %146 = icmp eq i32 %145, 2
  br i1 %146, label %147, label %156

147:                                              ; preds = %144
  %148 = load i32, ptr %8, align 4, !tbaa !37
  %149 = icmp eq i32 %148, 324
  br i1 %149, label %150, label %156

150:                                              ; preds = %147, %141
  %151 = call noundef nonnull align 8 dereferenceable(32) ptr @_ZNK4cvc58internal12NodeTemplateILb1EE8getConstINS0_8RationalEEERKT_v(ptr noundef nonnull align 8 dereferenceable(8) %1)
  %152 = call noundef i32 @_ZNK4cvc58internal8Rational3sgnEv(ptr noundef nonnull align 8 dereferenceable(32) %151)
  %153 = icmp slt i32 %152, 0
  br i1 %153, label %154, label %155

154:                                              ; preds = %150
  store i1 true, ptr %5, align 1
  br label %157

155:                                              ; preds = %150
  br label %156

156:                                              ; preds = %155, %147, %144
  store i1 false, ptr %5, align 1
  br label %157

157:                                              ; preds = %156, %154, %132, %110, %98, %69, %35, %28, %20, %16
  %158 = load i1, ptr %5, align 1
  ret i1 %158

159:                                              ; preds = %133, %111, %99
  %160 = load ptr, ptr %11, align 8
  %161 = load i32, ptr %12, align 4
  %162 = insertvalue { ptr, i32 } poison, ptr %160, 0
  %163 = insertvalue { ptr, i32 } %162, i32 %161, 1
  resume { ptr, i32 } %163
}